target datalayout = "e-m:e-p270:32:32-p271:32:32-p272:64:64-i64:64-i128:128-f80:128-n8:16:32:64-S128"
target triple = "x86_64-pc-linux-gnu"

%struct.expert_field = type { i32, i32 }

@hf_hdr_name_value = internal global i32 0, align 4
@ei_wsp_oversized_uintvar = internal global %struct.expert_field zeroinitializer, align 4
@ei_wsp_header_invalid_value = internal global %struct.expert_field zeroinitializer, align 4
@hf_hdr_content_id = internal global i32 0, align 4
@ett_content_id = internal global i32 0, align 4
@ei_wsp_trailing_quote = internal global %struct.expert_field zeroinitializer, align 4
@.str.858 = private unnamed_addr constant [4 x i8] c"%s\22\00", align 1
@.str.1172 = private unnamed_addr constant [11 x i8] c"Content ID\00", align 1

; Function Attrs: null_pointer_is_valid sspstrong uwtable
define internal i32 @wkh_content_id(ptr noundef %0, ptr noundef %1, i32 noundef %2, ptr noundef %3) #1 {
  %5 = alloca ptr, align 8
  %6 = alloca ptr, align 8
  %7 = alloca i32, align 4
  %8 = alloca ptr, align 8
  %9 = alloca i8, align 1
  %10 = alloca ptr, align 8
  %11 = alloca ptr, align 8
  %12 = alloca i32, align 4
  %13 = alloca i8, align 1
  %14 = alloca i32, align 4
  %15 = alloca i32, align 4
  %16 = alloca i32, align 4
  %17 = alloca ptr, align 8
  %18 = alloca ptr, align 8
  %19 = alloca ptr, align 8
  store ptr %0, ptr %5, align 8
  store ptr %1, ptr %6, align 8
  store i32 %2, ptr %7, align 4
  store ptr %3, ptr %8, align 8
  call void @llvm.lifetime.start.p0(i64 1, ptr %9) #8
  store i8 0, ptr %9, align 1
  call void @llvm.lifetime.start.p0(i64 8, ptr %10) #8
  call void @llvm.lifetime.start.p0(i64 8, ptr %11) #8
  call void @llvm.lifetime.start.p0(i64 4, ptr %12) #8
  %20 = load i32, ptr %7, align 4
  %21 = add i32 %20, 1
  store i32 %21, ptr %12, align 4
  call void @llvm.lifetime.start.p0(i64 1, ptr %13) #8
  %22 = load ptr, ptr %6, align 8
  %23 = load i32, ptr %12, align 4
  %24 = call zeroext i8 @tvb_get_uint8(ptr noundef %22, i32 noundef %23)
  store i8 %24, ptr %13, align 1
  call void @llvm.lifetime.start.p0(i64 4, ptr %14) #8
  %25 = load i32, ptr %12, align 4
  store i32 %25, ptr %14, align 4
  call void @llvm.lifetime.start.p0(i64 4, ptr %15) #8
  call void @llvm.lifetime.start.p0(i64 4, ptr %16) #8
  call void @llvm.lifetime.start.p0(i64 8, ptr %17) #8
  store ptr null, ptr %17, align 8
  call void @llvm.lifetime.start.p0(i64 8, ptr %18) #8
  call void @llvm.lifetime.start.p0(i64 8, ptr %19) #8
  store ptr null, ptr %19, align 8
  %26 = load ptr, ptr %5, align 8
  %27 = load ptr, ptr %6, align 8
  %28 = load i32, ptr %7, align 4
  %29 = load i32, ptr %14, align 4
  %30 = load i32, ptr %7, align 4
  %31 = sub i32 %29, %30
  %32 = load i32, ptr @ett_content_id, align 4
  %33 = call ptr @proto_tree_add_subtree(ptr noundef %26, ptr noundef %27, i32 noundef %28, i32 noundef %31, i32 noundef %32, ptr noundef %11, ptr noundef @.str.1172)
  store ptr %33, ptr %10, align 8
  %34 = load ptr, ptr %10, align 8
  %35 = load i32, ptr @hf_hdr_name_value, align 4
  %36 = load ptr, ptr %6, align 8
  %37 = load i32, ptr %7, align 4
  %38 = call ptr @proto_tree_add_item(ptr noundef %34, i32 noundef %35, ptr noundef %36, i32 noundef %37, i32 noundef 1, i32 noundef 0)
  %39 = load i8, ptr %13, align 1
  %40 = zext i8 %39 to i32
  %41 = and i32 %40, 128
  %42 = icmp ne i32 %41, 0
  br i1 %42, label %43, label %46

43:                                               ; preds = %4
  %44 = load i32, ptr %14, align 4
  %45 = add i32 %44, 1
  store i32 %45, ptr %14, align 4
  br label %141

46:                                               ; preds = %4
  %47 = load i8, ptr %13, align 1
  %48 = zext i8 %47 to i32
  %49 = icmp eq i32 %48, 0
  br i1 %49, label %54, label %50

50:                                               ; preds = %46
  %51 = load i8, ptr %13, align 1
  %52 = zext i8 %51 to i32
  %53 = icmp sge i32 %52, 32
  br i1 %53, label %54, label %117

54:                                               ; preds = %50, %46
  %55 = call ptr @wmem_packet_scope()
  %56 = load ptr, ptr %6, align 8
  %57 = load i32, ptr %12, align 4
  %58 = call ptr @tvb_get_stringz_enc(ptr noundef %55, ptr noundef %56, i32 noundef %57, ptr noundef %15, i32 noundef 0)
  store ptr %58, ptr %17, align 8
  %59 = load i32, ptr %12, align 4
  %60 = load i32, ptr %15, align 4
  %61 = add i32 %59, %60
  store i32 %61, ptr %14, align 4
  %62 = load ptr, ptr %17, align 8
  %63 = getelementptr i8, ptr %62, i64 0
  %64 = load i8, ptr %63, align 1
  %65 = sext i8 %64 to i32
  %66 = icmp eq i32 %65, 34
  br i1 %66, label %67, label %103

67:                                               ; preds = %54
  %68 = load ptr, ptr %17, align 8
  %69 = load i32, ptr %15, align 4
  %70 = sub i32 %69, 2
  %71 = zext i32 %70 to i64
  %72 = getelementptr i8, ptr %68, i64 %71
  %73 = load i8, ptr %72, align 1
  %74 = sext i8 %73 to i32
  %75 = icmp eq i32 %74, 34
  br i1 %75, label %76, label %89

76:                                               ; preds = %67
  %77 = load ptr, ptr %5, align 8
  %78 = load i32, ptr @hf_hdr_content_id, align 4
  %79 = load ptr, ptr %6, align 8
  %80 = load i32, ptr %7, align 4
  %81 = load i32, ptr %14, align 4
  %82 = load i32, ptr %7, align 4
  %83 = sub i32 %81, %82
  %84 = load ptr, ptr %17, align 8
  %85 = call ptr @proto_tree_add_string(ptr noundef %77, i32 noundef %78, ptr noundef %79, i32 noundef %80, i32 noundef %83, ptr noundef %84)
  store ptr %85, ptr %19, align 8
  %86 = load ptr, ptr %8, align 8
  %87 = load ptr, ptr %19, align 8
  %88 = call ptr @expert_add_info(ptr noundef %86, ptr noundef %87, ptr noundef @ei_wsp_trailing_quote)
  br label %102

89:                                               ; preds = %67
  %90 = call ptr @wmem_packet_scope()
  %91 = load ptr, ptr %17, align 8
  %92 = call noalias ptr (ptr, ptr, ...) @wmem_strdup_printf(ptr noundef %90, ptr noundef @.str.858, ptr noundef %91)
  store ptr %92, ptr %18, align 8
  %93 = load ptr, ptr %5, align 8
  %94 = load i32, ptr @hf_hdr_content_id, align 4
  %95 = load ptr, ptr %6, align 8
  %96 = load i32, ptr %7, align 4
  %97 = load i32, ptr %14, align 4
  %98 = load i32, ptr %7, align 4
  %99 = sub i32 %97, %98
  %100 = load ptr, ptr %18, align 8
  %101 = call ptr @proto_tree_add_string(ptr noundef %93, i32 noundef %94, ptr noundef %95, i32 noundef %96, i32 noundef %99, ptr noundef %100)
  br label %102

102:                                              ; preds = %89, %76
  br label %116

103:                                              ; preds = %54
  %104 = load ptr, ptr %5, align 8
  %105 = load i32, ptr @hf_hdr_content_id, align 4
  %106 = load ptr, ptr %6, align 8
  %107 = load i32, ptr %7, align 4
  %108 = load i32, ptr %14, align 4
  %109 = load i32, ptr %7, align 4
  %110 = sub i32 %108, %109
  %111 = load ptr, ptr %17, align 8
  %112 = call ptr @proto_tree_add_string(ptr noundef %104, i32 noundef %105, ptr noundef %106, i32 noundef %107, i32 noundef %110, ptr noundef %111)
  store ptr %112, ptr %19, align 8
  %113 = load ptr, ptr %8, align 8
  %114 = load ptr, ptr %19, align 8
  %115 = call ptr @expert_add_info(ptr noundef %113, ptr noundef %114, ptr noundef @ei_wsp_trailing_quote)
  br label %116

116:                                              ; preds = %103, %102
  store i8 1, ptr %9, align 1
  br label %140

117:                                              ; preds = %50
  %118 = load i8, ptr %13, align 1
  %119 = zext i8 %118 to i32
  %120 = icmp eq i32 %119, 31
  br i1 %120, label %121, label %129

121:                                              ; preds = %117
  %122 = load ptr, ptr %6, align 8
  %123 = load i32, ptr %12, align 4
  %124 = add i32 %123, 1
  %125 = load ptr, ptr %8, align 8
  %126 = call i32 @tvb_get_uintvar(ptr noundef %122, i32 noundef %124, ptr noundef %16, ptr noundef %125, ptr noundef @ei_wsp_oversized_uintvar)
  store i32 %126, ptr %15, align 4
  %127 = load i32, ptr %16, align 4
  %128 = add i32 %127, 1
  store i32 %128, ptr %16, align 4
  br label %134

129:                                              ; preds = %117
  %130 = load ptr, ptr %6, align 8
  %131 = load i32, ptr %14, align 4
  %132 = call zeroext i8 @tvb_get_uint8(ptr noundef %130, i32 noundef %131)
  %133 = zext i8 %132 to i32
  store i32 %133, ptr %15, align 4
  store i32 1, ptr %16, align 4
  br label %134

134:                                              ; preds = %129, %121
  %135 = load i32, ptr %16, align 4
  %136 = load i32, ptr %15, align 4
  %137 = add i32 %135, %136
  %138 = load i32, ptr %14, align 4
  %139 = add i32 %138, %137
  store i32 %139, ptr %14, align 4
  br label %140

140:                                              ; preds = %134, %116
  br label %141

141:                                              ; preds = %140, %43
  %142 = load i8, ptr %9, align 1, !range !6, !noundef !7
  %143 = trunc i8 %142 to i1
  br i1 %143, label %148, label %144

144:                                              ; preds = %141
  %145 = load ptr, ptr %8, align 8
  %146 = load ptr, ptr %11, align 8
  %147 = call ptr @expert_add_info(ptr noundef %145, ptr noundef %146, ptr noundef @ei_wsp_header_invalid_value)
  br label %148

148:                                              ; preds = %144, %141
  %149 = load i32, ptr %14, align 4
  call void @llvm.lifetime.end.p0(i64 8, ptr %19) #8
  call void @llvm.lifetime.end.p0(i64 8, ptr %18) #8
  call void @llvm.lifetime.end.p0(i64 8, ptr %17) #8
  call void @llvm.lifetime.end.p0(i64 4, ptr %16) #8
  call void @llvm.lifetime.end.p0(i64 4, ptr %15) #8
  call void @llvm.lifetime.end.p0(i64 4, ptr %14) #8
  call void @llvm.lifetime.end.p0(i64 1, ptr %13) #8
  call void @llvm.lifetime.end.p0(i64 4, ptr %12) #8
  call void @llvm.lifetime.end.p0(i64 8, ptr %11) #8
  call void @llvm.lifetime.end.p0(i64 8, ptr %10) #8
  call void @llvm.lifetime.end.p0(i64 1, ptr %9) #8
  ret i32 %149
}