; Function Attrs: null_pointer_is_valid sspstrong uwtable
define internal i32 @wkh_content_id(ptr noundef %0, ptr noundef %1, i32 noundef %2, ptr noundef %3) #1 {
  %5 = alloca ptr, align 8
  %6 = alloca i32, align 4
  %7 = alloca i32, align 4
  call void @llvm.lifetime.start.p0(i64 8, ptr nonnull %5) #5
  %8 = add i32 %2, 1
  %9 = tail call zeroext i8 @tvb_get_uint8(ptr noundef %1, i32 noundef %8)
  call void @llvm.lifetime.start.p0(i64 4, ptr nonnull %6) #5
  call void @llvm.lifetime.start.p0(i64 4, ptr nonnull %7) #5
  %10 = load i32, ptr @ett_content_id, align 4
  %11 = call ptr @proto_tree_add_subtree(ptr noundef %0, ptr noundef %1, i32 noundef %2, i32 noundef 1, i32 noundef %10, ptr noundef nonnull %5, ptr noundef nonnull @.str.1172)
  %12 = load i32, ptr @hf_hdr_name_value, align 4
  %13 = call ptr @proto_tree_add_item(ptr noundef %11, i32 noundef %12, ptr noundef %1, i32 noundef %2, i32 noundef 1, i32 noundef 0)
  %.not = icmp sgt i8 %9, -1
  br i1 %.not, label %16, label %14

14:                                               ; preds = %4
  %15 = add i32 %2, 2
  br label %60

16:                                               ; preds = %4
  %17 = add nsw i8 %9, -32
  %or.cond = icmp ult i8 %17, -31
  br i1 %or.cond, label %18, label %47

18:                                               ; preds = %16
  %19 = call ptr @wmem_packet_scope()
  %20 = call ptr @tvb_get_stringz_enc(ptr noundef %19, ptr noundef %1, i32 noundef %8, ptr noundef nonnull %6, i32 noundef 0)
  %21 = load i32, ptr %6, align 4
  %22 = add i32 %21, %8
  %23 = load i8, ptr %20, align 1
  %24 = icmp eq i8 %23, 34
  br i1 %24, label %25, label %42

25:                                               ; preds = %18
  %26 = add i32 %21, -2
  %27 = zext i32 %26 to i64
  %28 = getelementptr i8, ptr %20, i64 %27
  %29 = load i8, ptr %28, align 1
  %30 = icmp eq i8 %29, 34
  br i1 %30, label %31, label %36

31:                                               ; preds = %25
  %32 = load i32, ptr @hf_hdr_content_id, align 4
  %33 = sub i32 %22, %2
  %34 = call ptr @proto_tree_add_string(ptr noundef %0, i32 noundef %32, ptr noundef %1, i32 noundef %2, i32 noundef %33, ptr noundef %20)
  %35 = call ptr @expert_add_info(ptr noundef %3, ptr noundef %34, ptr noundef nonnull @ei_wsp_trailing_quote)
  br label %.thread

36:                                               ; preds = %25
  %37 = call ptr @wmem_packet_scope()
  %38 = call noalias ptr (ptr, ptr, ...) @wmem_strdup_printf(ptr noundef %37, ptr noundef nonnull @.str.858, ptr noundef %20)
  %39 = load i32, ptr @hf_hdr_content_id, align 4
  %40 = sub i32 %22, %2
  %41 = call ptr @proto_tree_add_string(ptr noundef %0, i32 noundef %39, ptr noundef %1, i32 noundef %2, i32 noundef %40, ptr noundef %38)
  br label %.thread

42:                                               ; preds = %18
  %43 = load i32, ptr @hf_hdr_content_id, align 4
  %44 = sub i32 %22, %2
  %45 = call ptr @proto_tree_add_string(ptr noundef %0, i32 noundef %43, ptr noundef %1, i32 noundef %2, i32 noundef %44, ptr noundef %20)
  %46 = call ptr @expert_add_info(ptr noundef %3, ptr noundef %45, ptr noundef nonnull @ei_wsp_trailing_quote)
  br label %.thread

47:                                               ; preds = %16
  %48 = icmp eq i8 %9, 31
  br i1 %48, label %49, label %54

49:                                               ; preds = %47
  %50 = add i32 %2, 2
  %51 = call i32 @tvb_get_uintvar(ptr noundef %1, i32 noundef %50, ptr noundef nonnull %7, ptr noundef %3, ptr noundef nonnull @ei_wsp_oversized_uintvar)
  %52 = load i32, ptr %7, align 4
  %53 = add i32 %52, 1
  br label %57

54:                                               ; preds = %47
  %55 = call zeroext i8 @tvb_get_uint8(ptr noundef %1, i32 noundef %8)
  %56 = zext i8 %55 to i32
  br label %57

57:                                               ; preds = %54, %49
  %.sink = phi i32 [ %51, %49 ], [ %56, %54 ]
  %storemerge = phi i32 [ %53, %49 ], [ 1, %54 ]
  store i32 %storemerge, ptr %7, align 4
  %58 = add i32 %storemerge, %8
  %59 = add i32 %58, %.sink
  br label %60

60:                                               ; preds = %14, %57
  %.055 = phi i32 [ %15, %14 ], [ %59, %57 ]
  %61 = load ptr, ptr %5, align 8
  %62 = call ptr @expert_add_info(ptr noundef %3, ptr noundef %61, ptr noundef nonnull @ei_wsp_header_invalid_value)
  br label %.thread

.thread:                                          ; preds = %42, %36, %31, %60
  %.05559 = phi i32 [ %.055, %60 ], [ %22, %31 ], [ %22, %36 ], [ %22, %42 ]
  call void @llvm.lifetime.end.p0(i64 4, ptr nonnull %7) #5
  call void @llvm.lifetime.end.p0(i64 4, ptr nonnull %6) #5
  call void @llvm.lifetime.end.p0(i64 8, ptr nonnull %5) #5
  ret i32 %.05559
}